V@media only screen\u000aand (min-device-width : 320px)\u000aand (max-device-width : 667px)\u000aand (orientation : portrait) {\u000a  .navbar-container {\u000a    display: none;   }\u000a}\u000a
p1
.