Vh1 {\u000a  color: #53585f; }\u000a\u000a  h2 {\u000a    color: #a6aaa9; }\u000a\u000a    h3 {\u000a      color: #787878; }\u000a\u000a      h4 {\u000a        color: #53585f; }\u000a\u000a        h5 {\u000a          color: #a6aaa9; }\u000a\u000a          h6 {\u000a            color: #a6aaa9; }\u000a\u000a            p {\u000a              color: #787878; }\u000a
p1
.