V@font-face {\u000a  font-family: pn;\u000a  src: url('PNR.woff'); }\u000a\u000a  @font-face {\u000a    font-family: pn;\u000a    src: url("PNB.woff");\u000a    font-weight: bold; }\u000a\u000a    * {\u000a      font-family: pn;\u000a      -webkit-font-smoothing: antialiased; }\u000a
p1
.