V.head-box {\u000a  width: 100%;\u000a  height: 650px;\u000a  border-bottom: 1px solid red;\u000a  position: absolute;\u000a  background-color: red; }\u000a\u000a  .h3-box {\u000a    margin-top: 650px;\u000a    height: 750px;\u000a    width: 100%;\u000a    background-color: blue; }\u000a
p1
.