V.head-box {\u000a  width: 100%;\u000a  height: 650px;\u000a  border-bottom: 1px solid red;\u000a  position: absolute;\u000a  background-color: red;\u000a  margin-bottom: 650px;\u000a  display: block; }\u000a\u000a  .h3-box {\u000a    display: block;\u000a    height: 750px;\u000a    position: absolute;\u000a    top: 650px;\u000a    background-color: blue; }\u000a
p1
.