Vh1 {\u000a  color: red; }\u000a\u000a  h2 {\u000a    color: red; }\u000a\u000a    h3 {\u000a      color: red; }\u000a\u000a      h4 {\u000a        color: red; }\u000a\u000a        h5 {\u000a          color: red; }\u000a\u000a          h6 {\u000a            color: red; }\u000a
p1
.