V@media only screen\u000aand (min-device-width : 320px)\u000aand (max-device-width : 667px)\u000aand (orientation : portrait) {\u000a  .news-bg {\u000a    width: 300px;\u000a    height: 350px;\u000a    margin: 0 auto;\u000a    position: relative;\u000a    top: 120px;\u000a    background-color: green;   }\u000a}\u000a
p1
.