V.head {\u000a  width: 100%;\u000a  height: 590px;\u000a  border-bottom: 1px solid red;\u000a  background-color: green;\u000a  position: relative;\u000a  top: -65px;\u000a  padding-top: 65px; }\u000a
p1
.